; Function Attrs: mustprogress uwtable
define hidden noundef zeroext i1 @_ZNK3sat17integrity_checker16contains_watchedERK6vectorINS_7watchedELb1EjERKNS_6clauseEm(ptr nocapture noundef nonnull readnone align 8 dereferenceable(8) %this, ptr nocapture noundef nonnull readonly align 8 dereferenceable(8) %wlist, ptr noundef nonnull align 4 dereferenceable(20) %c, i64 noundef %cls_off) local_unnamed_addr #4 align 2 {
entry:
  %0 = load ptr, ptr %wlist, align 8
  %cmp.i.i = icmp eq ptr %0, null
  br i1 %cmp.i.i, label %for.end, label %_ZNK6vectorIN3sat7watchedELb1EjE3endEv.exit

_ZNK6vectorIN3sat7watchedELb1EjE3endEv.exit:      ; preds = %entry
  %arrayidx.i.i = getelementptr inbounds i8, ptr %0, i64 -4
  %1 = load i32, ptr %arrayidx.i.i, align 4
  %2 = zext i32 %1 to i64
  %add.ptr.i = getelementptr inbounds %"class.sat::watched", ptr %0, i64 %2
  %cmp.not6 = icmp eq i32 %1, 0
  br i1 %cmp.not6, label %for.end, label %for.body

for.body:                                         ; preds = %_ZNK6vectorIN3sat7watchedELb1EjE3endEv.exit, %for.inc
  %__begin1.07 = phi ptr [ %incdec.ptr, %for.inc ], [ %0, %_ZNK6vectorIN3sat7watchedELb1EjE3endEv.exit ]
  %m_val2.i.i = getelementptr inbounds i8, ptr %__begin1.07, i64 8
  %3 = load i32, ptr %m_val2.i.i, align 8
  %and.i.i = and i32 %3, 3
  %cmp.i = icmp eq i32 %and.i.i, 1
  br i1 %cmp.i, label %if.then, label %for.inc

if.then:                                          ; preds = %for.body
  %4 = load i64, ptr %__begin1.07, align 8
  %cmp5 = icmp eq i64 %4, %cls_off
  br i1 %cmp5, label %if.then6, label %for.inc

if.then6:                                         ; preds = %if.then
  %shr.i = lshr i32 %3, 2
  %call9 = tail call noundef zeroext i1 @_ZNK3sat6clause8containsENS_7literalE(ptr noundef nonnull align 4 dereferenceable(20) %c, i32 %shr.i)
  br i1 %call9, label %if.end, label %if.then10

if.then10:                                        ; preds = %if.then6
  tail call void @_Z26notify_assertion_violationPKciS0_(ptr noundef nonnull @.str, i32 noundef 36, ptr noundef nonnull @.str.2)
  tail call void @exit(i32 noundef 114) #15
  unreachable

if.end:                                           ; preds = %if.then6
  ret i1 true

for.inc:                                          ; preds = %for.body, %if.then
  %incdec.ptr = getelementptr inbounds i8, ptr %__begin1.07, i64 16
  %cmp.not = icmp eq ptr %incdec.ptr, %add.ptr.i
  br i1 %cmp.not, label %for.end, label %for.body

for.end:                                          ; preds = %for.inc, %entry, %_ZNK6vectorIN3sat7watchedELb1EjE3endEv.exit
  tail call void @_Z26notify_assertion_violationPKciS0_(ptr noundef nonnull @.str, i32 noundef 43, ptr noundef nonnull @.str.3)
  tail call void @exit(i32 noundef 114) #15
  unreachable
}